target datalayout = "e-m:e-p270:32:32-p271:32:32-p272:64:64-i64:64-i128:128-f80:128-n8:16:32:64-S128"
target triple = "x86_64-pc-linux-gnu"

; Function Attrs: inlinehint mustprogress nounwind uwtable
define linkonce_odr noundef zeroext i1 @_ZN4base16IsValidCodepointEj(i32 noundef %0) #4 comdat {
  %2 = alloca i32, align 4
  store i32 %0, ptr %2, align 4, !tbaa !25
  %3 = load i32, ptr %2, align 4, !tbaa !25
  %4 = icmp ult i32 %3, 55296
  br i1 %4, label %13, label %5

5:                                                ; preds = %1
  %6 = load i32, ptr %2, align 4, !tbaa !25
  %7 = icmp uge i32 %6, 57344
  br i1 %7, label %8, label %11

8:                                                ; preds = %5
  %9 = load i32, ptr %2, align 4, !tbaa !25
  %10 = icmp ule i32 %9, 1114111
  br label %11

11:                                               ; preds = %8, %5
  %12 = phi i1 [ false, %5 ], [ %10, %8 ]
  br label %13

13:                                               ; preds = %11, %1
  %14 = phi i1 [ true, %1 ], [ %12, %11 ]
  ret i1 %14
}

; Function Attrs: mustprogress uwtable
define noundef zeroext i1 @_ZN4base20ReadUnicodeCharacterEPKwiPiPj(ptr noundef %0, i32 noundef %1, ptr noundef %2, ptr noundef %3) #0 {
  %5 = alloca ptr, align 8
  %6 = alloca i32, align 4
  %7 = alloca ptr, align 8
  %8 = alloca ptr, align 8
  store ptr %0, ptr %5, align 8, !tbaa !3
  store i32 %1, ptr %6, align 4, !tbaa !25
  store ptr %2, ptr %7, align 8, !tbaa !27
  store ptr %3, ptr %8, align 8, !tbaa !27
  %9 = load ptr, ptr %5, align 8, !tbaa !3
  %10 = load ptr, ptr %7, align 8, !tbaa !27
  %11 = load i32, ptr %10, align 4, !tbaa !25
  %12 = sext i32 %11 to i64
  %13 = getelementptr inbounds i32, ptr %9, i64 %12
  %14 = load i32, ptr %13, align 4, !tbaa !12
  %15 = load ptr, ptr %8, align 8, !tbaa !27
  store i32 %14, ptr %15, align 4, !tbaa !25
  %16 = load ptr, ptr %8, align 8, !tbaa !27
  %17 = load i32, ptr %16, align 4, !tbaa !25
  %18 = call noundef zeroext i1 @_ZN4base16IsValidCodepointEj(i32 noundef %17)
  ret i1 %18
}