; Function Attrs: mustprogress nofree norecurse nosync nounwind willreturn memory(argmem: readwrite) uwtable
define noundef zeroext i1 @_ZN4base20ReadUnicodeCharacterEPKwiPiPj(ptr noundef readonly captures(none) %0, i32 noundef %1, ptr noundef readonly captures(none) %2, ptr noundef writeonly captures(none) initializes((0, 4)) %3) local_unnamed_addr #2 {
  %5 = load i32, ptr %2, align 4, !tbaa !27
  %6 = sext i32 %5 to i64
  %7 = getelementptr inbounds i32, ptr %0, i64 %6
  %8 = load i32, ptr %7, align 4, !tbaa !13
  store i32 %8, ptr %3, align 4, !tbaa !27
  %9 = icmp ult i32 %8, 55296
  %10 = add i32 %8, -57344
  %11 = icmp ult i32 %10, 1056768
  %12 = or i1 %9, %11
  ret i1 %12
}